; Function Attrs: nounwind uwtable
define hidden range(i32 0, 3) i32 @PyExpat_XML_Parse(ptr noundef %0, ptr noundef readonly %1, i32 noundef %2, i32 noundef %3) local_unnamed_addr #0 {
  %5 = icmp eq ptr %0, null
  %6 = icmp slt i32 %2, 0
  %or.cond = or i1 %5, %6
  br i1 %or.cond, label %10, label %7

7:                                                ; preds = %4
  %8 = icmp eq ptr %1, null
  %9 = icmp ne i32 %2, 0
  %or.cond3 = and i1 %8, %9
  br i1 %or.cond3, label %.thread, label %12

10:                                               ; preds = %4
  br i1 %5, label %35, label %.thread

.thread:                                          ; preds = %7, %10
  %11 = getelementptr inbounds nuw i8, ptr %0, i64 552
  store i32 41, ptr %11, align 8, !tbaa !109
  br label %35

12:                                               ; preds = %7
  %13 = getelementptr inbounds nuw i8, ptr %0, i64 920
  %14 = load i32, ptr %13, align 8, !tbaa !113
  switch i32 %14, label %27 [
    i32 3, label %15
    i32 2, label %17
    i32 0, label %19
  ]

15:                                               ; preds = %12
  %16 = getelementptr inbounds nuw i8, ptr %0, i64 552
  store i32 33, ptr %16, align 8, !tbaa !109
  br label %35

17:                                               ; preds = %12
  %18 = getelementptr inbounds nuw i8, ptr %0, i64 552
  store i32 36, ptr %18, align 8, !tbaa !109
  br label %35

19:                                               ; preds = %12
  %20 = getelementptr inbounds nuw i8, ptr %0, i64 912
  %21 = load ptr, ptr %20, align 8, !tbaa !66
  %22 = icmp eq ptr %21, null
  br i1 %22, label %23, label %27

23:                                               ; preds = %19
  %24 = tail call fastcc zeroext i8 @startParsing(ptr noundef %0)
  %.not = icmp eq i8 %24, 0
  br i1 %.not, label %25, label %27

25:                                               ; preds = %23
  %26 = getelementptr inbounds nuw i8, ptr %0, i64 552
  store i32 1, ptr %26, align 8, !tbaa !109
  br label %35

27:                                               ; preds = %19, %23, %12
  store i32 1, ptr %13, align 8, !tbaa !113
  %28 = tail call ptr @PyExpat_XML_GetBuffer(ptr noundef nonnull %0, i32 noundef %2)
  %29 = icmp eq ptr %28, null
  br i1 %29, label %35, label %30

30:                                               ; preds = %27
  %.not31 = icmp eq i32 %2, 0
  br i1 %.not31, label %33, label %31

31:                                               ; preds = %30
  %32 = zext nneg i32 %2 to i64
  tail call void @llvm.memcpy.p0.p0.i64(ptr nonnull align 1 %28, ptr align 1 %1, i64 %32, i1 false)
  br label %33

33:                                               ; preds = %31, %30
  %34 = tail call i32 @PyExpat_XML_ParseBuffer(ptr noundef nonnull %0, i32 noundef %2, i32 noundef %3)
  br label %35

35:                                               ; preds = %33, %27, %10, %.thread, %25, %17, %15
  %.0 = phi i32 [ 0, %25 ], [ 0, %17 ], [ 0, %15 ], [ 0, %.thread ], [ 0, %10 ], [ %34, %33 ], [ 0, %27 ]
  ret i32 %.0
}